target datalayout = "e-m:e-p270:32:32-p271:32:32-p272:64:64-i64:64-i128:128-f80:128-n8:16:32:64-S128"
target triple = "x86_64-pc-linux-gnu"

@.str.70 = private unnamed_addr constant [5 x i8] c" \09\0D\0A\00", align 1

; Function Attrs: nounwind sspstrong uwtable
define internal ptr @local__get_field_(ptr noundef %0, i32 noundef %1) #0 {
  %3 = alloca ptr, align 8
  %4 = alloca ptr, align 8
  %5 = alloca i32, align 4
  %6 = alloca i32, align 4
  %7 = alloca ptr, align 8
  %8 = alloca i32, align 4
  store ptr %0, ptr %4, align 8, !tbaa !13
  store i32 %1, ptr %5, align 4, !tbaa !4
  call void @llvm.lifetime.start.p0(i64 4, ptr %6) #8
  store i32 0, ptr %6, align 4, !tbaa !4
  call void @llvm.lifetime.start.p0(i64 8, ptr %7) #8
  %9 = load ptr, ptr %4, align 8, !tbaa !13
  %10 = load ptr, ptr %9, align 8, !tbaa !19
  %11 = icmp eq ptr null, %10
  br i1 %11, label %12, label %13

12:                                               ; preds = %2
  store ptr null, ptr %3, align 8
  store i32 1, ptr %8, align 4
  br label %120

13:                                               ; preds = %2
  br label %14

14:                                               ; preds = %29, %13
  %15 = load ptr, ptr %4, align 8, !tbaa !13
  %16 = load ptr, ptr %15, align 8, !tbaa !19
  %17 = load i8, ptr %16, align 1, !tbaa !25
  %18 = sext i8 %17 to i32
  %19 = icmp ne i32 %18, 0
  br i1 %19, label %20, label %27

20:                                               ; preds = %14
  %21 = load ptr, ptr %4, align 8, !tbaa !13
  %22 = load ptr, ptr %21, align 8, !tbaa !19
  %23 = load i8, ptr %22, align 1, !tbaa !25
  %24 = sext i8 %23 to i32
  %25 = call ptr @strchr(ptr noundef @.str.70, i32 noundef %24) #9
  %26 = icmp ne ptr null, %25
  br label %27

27:                                               ; preds = %20, %14
  %28 = phi i1 [ false, %14 ], [ %26, %20 ]
  br i1 %28, label %29, label %33

29:                                               ; preds = %27
  %30 = load ptr, ptr %4, align 8, !tbaa !13
  %31 = load ptr, ptr %30, align 8, !tbaa !19
  %32 = getelementptr inbounds nuw i8, ptr %31, i32 1
  store ptr %32, ptr %30, align 8, !tbaa !19
  br label %14, !llvm.loop !42

33:                                               ; preds = %27
  %34 = load ptr, ptr %4, align 8, !tbaa !13
  %35 = load ptr, ptr %34, align 8, !tbaa !19
  %36 = load i8, ptr %35, align 1, !tbaa !25
  %37 = sext i8 %36 to i32
  %38 = icmp eq i32 %37, 0
  br i1 %38, label %39, label %41

39:                                               ; preds = %33
  %40 = load ptr, ptr %4, align 8, !tbaa !13
  store ptr null, ptr %40, align 8, !tbaa !19
  store ptr null, ptr %3, align 8
  store i32 1, ptr %8, align 4
  br label %120

41:                                               ; preds = %33
  %42 = load i32, ptr %5, align 4, !tbaa !4
  %43 = icmp ne i32 %42, 0
  br i1 %43, label %44, label %62

44:                                               ; preds = %41
  %45 = load ptr, ptr %4, align 8, !tbaa !13
  %46 = load ptr, ptr %45, align 8, !tbaa !19
  %47 = load i8, ptr %46, align 1, !tbaa !25
  %48 = sext i8 %47 to i32
  %49 = icmp eq i32 %48, 34
  br i1 %49, label %50, label %62

50:                                               ; preds = %44
  store i32 1, ptr %6, align 4, !tbaa !4
  %51 = load ptr, ptr %4, align 8, !tbaa !13
  %52 = load ptr, ptr %51, align 8, !tbaa !19
  %53 = getelementptr inbounds nuw i8, ptr %52, i32 1
  store ptr %53, ptr %51, align 8, !tbaa !19
  %54 = load ptr, ptr %4, align 8, !tbaa !13
  %55 = load ptr, ptr %54, align 8, !tbaa !19
  %56 = load i8, ptr %55, align 1, !tbaa !25
  %57 = sext i8 %56 to i32
  %58 = icmp eq i32 %57, 0
  br i1 %58, label %59, label %61

59:                                               ; preds = %50
  %60 = load ptr, ptr %4, align 8, !tbaa !13
  store ptr null, ptr %60, align 8, !tbaa !19
  store ptr null, ptr %3, align 8
  store i32 1, ptr %8, align 4
  br label %120

61:                                               ; preds = %50
  br label %62

62:                                               ; preds = %61, %44, %41
  %63 = load ptr, ptr %4, align 8, !tbaa !13
  %64 = load ptr, ptr %63, align 8, !tbaa !19
  store ptr %64, ptr %7, align 8, !tbaa !19
  %65 = load i32, ptr %6, align 4, !tbaa !4
  %66 = icmp ne i32 %65, 0
  br i1 %66, label %67, label %84

67:                                               ; preds = %62
  %68 = load ptr, ptr %4, align 8, !tbaa !13
  %69 = load ptr, ptr %68, align 8, !tbaa !19
  %70 = call ptr @strchr(ptr noundef %69, i32 noundef 34) #9
  %71 = load ptr, ptr %4, align 8, !tbaa !13
  store ptr %70, ptr %71, align 8, !tbaa !19
  %72 = load ptr, ptr %4, align 8, !tbaa !13
  %73 = load ptr, ptr %72, align 8, !tbaa !19
  %74 = icmp eq ptr null, %73
  br i1 %74, label %75, label %77

75:                                               ; preds = %67
  %76 = load ptr, ptr %4, align 8, !tbaa !13
  store ptr null, ptr %76, align 8, !tbaa !19
  store ptr null, ptr %7, align 8, !tbaa !19
  br label %83

77:                                               ; preds = %67
  %78 = load ptr, ptr %4, align 8, !tbaa !13
  %79 = load ptr, ptr %78, align 8, !tbaa !19
  store i8 0, ptr %79, align 1, !tbaa !25
  %80 = load ptr, ptr %4, align 8, !tbaa !13
  %81 = load ptr, ptr %80, align 8, !tbaa !19
  %82 = getelementptr inbounds nuw i8, ptr %81, i32 1
  store ptr %82, ptr %80, align 8, !tbaa !19
  br label %83

83:                                               ; preds = %77, %75
  br label %118

84:                                               ; preds = %62
  br label %85

85:                                               ; preds = %100, %84
  %86 = load ptr, ptr %4, align 8, !tbaa !13
  %87 = load ptr, ptr %86, align 8, !tbaa !19
  %88 = load i8, ptr %87, align 1, !tbaa !25
  %89 = sext i8 %88 to i32
  %90 = icmp ne i32 %89, 0
  br i1 %90, label %91, label %98

91:                                               ; preds = %85
  %92 = load ptr, ptr %4, align 8, !tbaa !13
  %93 = load ptr, ptr %92, align 8, !tbaa !19
  %94 = load i8, ptr %93, align 1, !tbaa !25
  %95 = sext i8 %94 to i32
  %96 = call ptr @strchr(ptr noundef @.str.70, i32 noundef %95) #9
  %97 = icmp eq ptr null, %96
  br label %98

98:                                               ; preds = %91, %85
  %99 = phi i1 [ false, %85 ], [ %97, %91 ]
  br i1 %99, label %100, label %104

100:                                              ; preds = %98
  %101 = load ptr, ptr %4, align 8, !tbaa !13
  %102 = load ptr, ptr %101, align 8, !tbaa !19
  %103 = getelementptr inbounds nuw i8, ptr %102, i32 1
  store ptr %103, ptr %101, align 8, !tbaa !19
  br label %85, !llvm.loop !43

104:                                              ; preds = %98
  %105 = load ptr, ptr %4, align 8, !tbaa !13
  %106 = load ptr, ptr %105, align 8, !tbaa !19
  %107 = load i8, ptr %106, align 1, !tbaa !25
  %108 = icmp ne i8 %107, 0
  br i1 %108, label %109, label %115

109:                                              ; preds = %104
  %110 = load ptr, ptr %4, align 8, !tbaa !13
  %111 = load ptr, ptr %110, align 8, !tbaa !19
  store i8 0, ptr %111, align 1, !tbaa !25
  %112 = load ptr, ptr %4, align 8, !tbaa !13
  %113 = load ptr, ptr %112, align 8, !tbaa !19
  %114 = getelementptr inbounds nuw i8, ptr %113, i32 1
  store ptr %114, ptr %112, align 8, !tbaa !19
  br label %117

115:                                              ; preds = %104
  %116 = load ptr, ptr %4, align 8, !tbaa !13
  store ptr null, ptr %116, align 8, !tbaa !19
  br label %117

117:                                              ; preds = %115, %109
  br label %118

118:                                              ; preds = %117, %83
  %119 = load ptr, ptr %7, align 8, !tbaa !19
  store ptr %119, ptr %3, align 8
  store i32 1, ptr %8, align 4
  br label %120

120:                                              ; preds = %118, %59, %39, %12
  call void @llvm.lifetime.end.p0(i64 8, ptr %7) #8
  call void @llvm.lifetime.end.p0(i64 4, ptr %6) #8
  %121 = load ptr, ptr %3, align 8
  ret ptr %121
}