; Function Attrs: nofree nounwind sspstrong memory(readwrite, inaccessiblemem: none) uwtable
define internal fastcc ptr @local__get_field_(ptr noundef nonnull captures(none) %0, i32 noundef range(i32 0, 2) %1) unnamed_addr #7 {
  %3 = load ptr, ptr %0, align 8, !tbaa !8
  %4 = icmp eq ptr %3, null
  br i1 %4, label %32, label %.preheader

.preheader:                                       ; preds = %2
  %5 = load i8, ptr %3, align 1, !tbaa !15
  %.not49 = icmp eq i8 %5, 0
  br i1 %.not49, label %.sink.split, label %.lr.ph

.lr.ph:                                           ; preds = %.preheader, %11
  %6 = phi i8 [ %13, %11 ], [ %5, %.preheader ]
  %7 = phi ptr [ %12, %11 ], [ %3, %.preheader ]
  %8 = zext nneg i8 %6 to i64
  %memchr.bounds = icmp ugt i8 %6, 63
  %9 = shl nuw i64 1, %8
  %10 = and i64 %9, 4294977025
  %memchr.bits = icmp eq i64 %10, 0
  %memchr42.not = select i1 %memchr.bounds, i1 true, i1 %memchr.bits
  br i1 %memchr42.not, label %.critedge, label %11

11:                                               ; preds = %.lr.ph
  %12 = getelementptr inbounds nuw i8, ptr %7, i64 1
  store ptr %12, ptr %0, align 8, !tbaa !8
  %13 = load i8, ptr %12, align 1, !tbaa !15
  %.not = icmp eq i8 %13, 0
  br i1 %.not, label %.sink.split, label %.lr.ph, !llvm.loop !16

.critedge:                                        ; preds = %.lr.ph
  %.not36 = icmp ne i32 %1, 0
  %14 = icmp eq i8 %6, 34
  %or.cond = and i1 %.not36, %14
  br i1 %or.cond, label %15, label %.lr.ph53

15:                                               ; preds = %.critedge
  %16 = getelementptr inbounds nuw i8, ptr %7, i64 1
  store ptr %16, ptr %0, align 8, !tbaa !8
  %17 = load i8, ptr %16, align 1, !tbaa !15
  %18 = icmp eq i8 %17, 0
  br i1 %18, label %.sink.split, label %19

19:                                               ; preds = %15
  %20 = tail call ptr @strchr(ptr noundef nonnull dereferenceable(1) %16, i32 noundef 34) #14
  store ptr %20, ptr %0, align 8, !tbaa !8
  %21 = icmp eq ptr %20, null
  br i1 %21, label %.sink.split, label %.sink.split.sink.split

.lr.ph53:                                         ; preds = %.critedge, %27
  %22 = phi i8 [ %29, %27 ], [ %6, %.critedge ]
  %23 = phi ptr [ %28, %27 ], [ %7, %.critedge ]
  %24 = zext nneg i8 %22 to i64
  %memchr.bounds43 = icmp ugt i8 %22, 63
  %25 = shl nuw i64 1, %24
  %26 = and i64 %25, 4294977025
  %memchr.bits44 = icmp eq i64 %26, 0
  %memchr.not = select i1 %memchr.bounds43, i1 true, i1 %memchr.bits44
  br i1 %memchr.not, label %27, label %.sink.split.sink.split

27:                                               ; preds = %.lr.ph53
  %28 = getelementptr inbounds nuw i8, ptr %23, i64 1
  store ptr %28, ptr %0, align 8, !tbaa !8
  %29 = load i8, ptr %28, align 1, !tbaa !15
  %.not38 = icmp eq i8 %29, 0
  br i1 %.not38, label %.sink.split, label %.lr.ph53, !llvm.loop !18

.sink.split.sink.split:                           ; preds = %.lr.ph53, %19
  %.lcssa.sink = phi ptr [ %20, %19 ], [ %23, %.lr.ph53 ]
  %.030.ph.ph = phi ptr [ %16, %19 ], [ %7, %.lr.ph53 ]
  store i8 0, ptr %.lcssa.sink, align 1, !tbaa !15
  %30 = load ptr, ptr %0, align 8, !tbaa !8
  %31 = getelementptr inbounds nuw i8, ptr %30, i64 1
  br label %.sink.split

.sink.split:                                      ; preds = %11, %27, %.sink.split.sink.split, %19, %15, %.preheader
  %.sink = phi ptr [ null, %.preheader ], [ null, %15 ], [ null, %19 ], [ %31, %.sink.split.sink.split ], [ null, %27 ], [ null, %11 ]
  %.030.ph = phi ptr [ null, %.preheader ], [ null, %15 ], [ null, %19 ], [ %.030.ph.ph, %.sink.split.sink.split ], [ %7, %27 ], [ null, %11 ]
  store ptr %.sink, ptr %0, align 8, !tbaa !8
  br label %32

32:                                               ; preds = %.sink.split, %2
  %.030 = phi ptr [ null, %2 ], [ %.030.ph, %.sink.split ]
  ret ptr %.030
}